; Function Attrs: mustprogress nounwind uwtable
define dso_local void @_ZN11flatbuffers15LogCompilerWarnERKNSt7__cxx1112basic_stringIcSt11char_traitsIcESaIcEEE(ptr noundef nonnull align 8 dereferenceable(32) %warn) local_unnamed_addr #0 {
entry:
  %0 = load ptr, ptr @_ZL14g_program_name, align 8
  %call.i = tail call i32 (ptr, ...) @printf(ptr noundef nonnull dereferenceable(1) @.str.50, ptr noundef %0)
  %1 = load ptr, ptr @stderr, align 8
  %call1.i = tail call noundef ptr @_ZNKSt7__cxx1112basic_stringIcSt11char_traitsIcESaIcEE5c_strEv(ptr noundef nonnull align 8 dereferenceable(32) %warn) #14
  %call2.i = tail call i32 (ptr, ptr, ...) @fprintf(ptr noundef %1, ptr noundef nonnull @.str.51, ptr noundef %call1.i) #15
  ret void
}